; Function Attrs: mustprogress uwtable
define void @_ZN15ProfileTreeView21mouseDoubleClickEventEP11QMouseEvent(ptr noundef nonnull align 8 dereferenceable(48) %0, ptr noundef %1) unnamed_addr #0 align 2 personality ptr @__gxx_personality_v0 {
  %3 = alloca %class.QList.5, align 8
  %4 = alloca %class.QModelIndex, align 8
  %5 = load ptr, ptr %0, align 8
  %6 = getelementptr inbounds i8, ptr %5, i64 728
  %7 = load ptr, ptr %6, align 8
  call void %7(ptr dead_on_unwind nonnull writable sret(%class.QList.5) align 8 %3, ptr noundef nonnull align 8 dereferenceable(40) %0)
  %8 = getelementptr inbounds i8, ptr %3, i64 16
  %9 = load i64, ptr %8, align 8
  %10 = invoke noundef ptr @_ZNK17QAbstractItemView5modelEv(ptr noundef nonnull align 8 dereferenceable(40) %0)
          to label %11 unwind label %25

11:                                               ; preds = %2
  store i32 -1, ptr %4, align 8
  %12 = getelementptr inbounds i8, ptr %4, i64 4
  store i32 -1, ptr %12, align 4
  %13 = getelementptr inbounds i8, ptr %4, i64 8
  call void @llvm.memset.p0.i64(ptr noundef nonnull align 8 dereferenceable(16) %13, i8 0, i64 16, i1 false)
  %14 = load ptr, ptr %10, align 8
  %15 = getelementptr inbounds i8, ptr %14, i64 128
  %16 = load ptr, ptr %15, align 8
  %17 = invoke noundef i32 %16(ptr noundef nonnull align 8 dereferenceable(16) %10, ptr noundef nonnull align 8 dereferenceable(24) %4)
          to label %18 unwind label %25

18:                                               ; preds = %11
  %19 = sext i32 %17 to i64
  %.not = icmp sgt i64 %9, %19
  %20 = load ptr, ptr %3, align 8
  %.not.i.i.i = icmp eq ptr %20, null
  br i1 %.not.i.i.i, label %_ZN5QListI11QModelIndexED2Ev.exit, label %_ZN17QArrayDataPointerI11QModelIndexE5derefEv.exit.i.i

_ZN17QArrayDataPointerI11QModelIndexE5derefEv.exit.i.i: ; preds = %18
  %21 = atomicrmw sub ptr %20, i32 1 seq_cst, align 4
  %.not.i.i = icmp eq i32 %21, 1
  br i1 %.not.i.i, label %22, label %_ZN5QListI11QModelIndexED2Ev.exit

22:                                               ; preds = %_ZN17QArrayDataPointerI11QModelIndexE5derefEv.exit.i.i
  %23 = load ptr, ptr %3, align 8
  call void @_ZN10QArrayData10deallocateEPS_xx(ptr noundef %23, i64 noundef 24, i64 noundef 8) #10
  br label %_ZN5QListI11QModelIndexED2Ev.exit

_ZN5QListI11QModelIndexED2Ev.exit:                ; preds = %18, %_ZN17QArrayDataPointerI11QModelIndexE5derefEv.exit.i.i, %22
  br i1 %.not, label %31, label %24

24:                                               ; preds = %_ZN5QListI11QModelIndexED2Ev.exit
  call void @_ZN9QTreeView21mouseDoubleClickEventEP11QMouseEvent(ptr noundef nonnull align 8 dereferenceable(40) %0, ptr noundef %1)
  br label %31

25:                                               ; preds = %11, %2
  %26 = landingpad { ptr, i32 }
          cleanup
  %27 = load ptr, ptr %3, align 8
  %.not.i.i.i3 = icmp eq ptr %27, null
  br i1 %.not.i.i.i3, label %_ZN5QListI11QModelIndexED2Ev.exit6, label %_ZN17QArrayDataPointerI11QModelIndexE5derefEv.exit.i.i4

_ZN17QArrayDataPointerI11QModelIndexE5derefEv.exit.i.i4: ; preds = %25
  %28 = atomicrmw sub ptr %27, i32 1 seq_cst, align 4
  %.not.i.i5 = icmp eq i32 %28, 1
  br i1 %.not.i.i5, label %29, label %_ZN5QListI11QModelIndexED2Ev.exit6

29:                                               ; preds = %_ZN17QArrayDataPointerI11QModelIndexE5derefEv.exit.i.i4
  %30 = load ptr, ptr %3, align 8
  call void @_ZN10QArrayData10deallocateEPS_xx(ptr noundef %30, i64 noundef 24, i64 noundef 8) #10
  br label %_ZN5QListI11QModelIndexED2Ev.exit6

_ZN5QListI11QModelIndexED2Ev.exit6:               ; preds = %25, %_ZN17QArrayDataPointerI11QModelIndexE5derefEv.exit.i.i4, %29
  resume { ptr, i32 } %26

31:                                               ; preds = %24, %_ZN5QListI11QModelIndexED2Ev.exit
  ret void
}